(dp1
S'first_name'
p2
(dp3
S'type'
p4
S'string'
p5
sS'sortable'
p6
I2
sS'sql'
p7
S'CHAR(512)'
p8
ssS'last_name'
p9
(dp10
g4
g5
sg6
I3
sg7
S'CHAR(512)'
p11
ssS'suspended'
p12
(dp13
g4
S'boolean'
p14
sg6
I7
sg7
S'CHAR(1)'
p15
ssS'membership_id'
p16
(dp17
g4
g5
sg6
I6
sg7
S'CHAR(512)'
p18
ssS'email'
p19
(dp20
g4
g5
sg6
I4
sg7
S'CHAR(512)'
p21
ssS'fines'
p22
(dp23
g4
S'decimal(4, 2)'
p24
sg6
I5
sg7
S'DOUBLE'
p25
ssS'id'
p26
(dp27
g4
S'id'
p28
sg6
I1
sg7
S'INTEGER PRIMARY KEY AUTOINCREMENT'
p29
ss.